; Function Attrs: nounwind uwtable
define noundef i32 @Mf_ManPrintMfccStats(ptr noundef readonly captures(none) %0, i32 noundef %1) local_unnamed_addr #0 {
  %3 = load ptr, ptr %0, align 8, !tbaa !131
  %4 = getelementptr i8, ptr %3, i64 160
  %.val8 = load ptr, ptr %4, align 8, !tbaa !281
  %5 = add nsw i32 %1, 1
  %6 = getelementptr inbounds nuw i8, ptr %.val8, i64 4
  %7 = load i32, ptr %6, align 4, !tbaa !27
  %.not.i.not.i.i = icmp slt i32 %1, %7
  br i1 %.not.i.not.i.i, label %Gia_ObjLevelId.exit, label %8

8:                                                ; preds = %2
  %9 = load i32, ptr %.val8, align 8, !tbaa !23
  %10 = shl nsw i32 %9, 1
  %.not.i.i = icmp slt i32 %1, %10
  %.not.i.i.not.i.i = icmp sgt i32 %9, %1
  br i1 %.not.i.i, label %23, label %11

11:                                               ; preds = %8
  br i1 %.not.i.i.not.i.i, label %Vec_IntGrow.exit.i.i.i, label %12

12:                                               ; preds = %11
  %13 = getelementptr inbounds nuw i8, ptr %.val8, i64 8
  %14 = load ptr, ptr %13, align 8, !tbaa !26
  %.not9.i.i.i.i = icmp eq ptr %14, null
  %15 = sext i32 %5 to i64
  %16 = shl nsw i64 %15, 2
  br i1 %.not9.i.i.i.i, label %19, label %17

17:                                               ; preds = %12
  %18 = tail call ptr @realloc(ptr noundef nonnull %14, i64 noundef %16) #30
  br label %21

19:                                               ; preds = %12
  %20 = tail call noalias ptr @malloc(i64 noundef %16) #27
  br label %21

21:                                               ; preds = %19, %17
  %22 = phi ptr [ %18, %17 ], [ %20, %19 ]
  store ptr %22, ptr %13, align 8, !tbaa !26
  br label %Vec_IntGrow.exit.sink.split.i.i.i

23:                                               ; preds = %8
  br i1 %.not.i.i.not.i.i, label %Vec_IntGrow.exit.i.i.i, label %24

24:                                               ; preds = %23
  %25 = getelementptr inbounds nuw i8, ptr %.val8, i64 8
  %26 = load ptr, ptr %25, align 8, !tbaa !26
  %.not9.i21.i.i.i = icmp eq ptr %26, null
  %27 = sext i32 %10 to i64
  %28 = shl nsw i64 %27, 2
  br i1 %.not9.i21.i.i.i, label %31, label %29

29:                                               ; preds = %24
  %30 = tail call ptr @realloc(ptr noundef nonnull %26, i64 noundef %28) #30
  br label %33

31:                                               ; preds = %24
  %32 = tail call noalias ptr @malloc(i64 noundef %28) #27
  br label %33

33:                                               ; preds = %31, %29
  %34 = phi ptr [ %30, %29 ], [ %32, %31 ]
  store ptr %34, ptr %25, align 8, !tbaa !26
  br label %Vec_IntGrow.exit.sink.split.i.i.i

Vec_IntGrow.exit.sink.split.i.i.i:                ; preds = %33, %21
  %.sink.i.i.i = phi i32 [ %10, %33 ], [ %5, %21 ]
  store i32 %.sink.i.i.i, ptr %.val8, align 8, !tbaa !23
  %.pre.i.i = load i32, ptr %6, align 4, !tbaa !27
  br label %Vec_IntGrow.exit.i.i.i

Vec_IntGrow.exit.i.i.i:                           ; preds = %Vec_IntGrow.exit.sink.split.i.i.i, %23, %11
  %35 = phi i32 [ %.pre.i.i, %Vec_IntGrow.exit.sink.split.i.i.i ], [ %7, %23 ], [ %7, %11 ]
  %.not3.i.i = icmp sgt i32 %35, %1
  br i1 %.not3.i.i, label %._crit_edge.i.i.i, label %.lr.ph.i.i.i

.lr.ph.i.i.i:                                     ; preds = %Vec_IntGrow.exit.i.i.i
  %36 = getelementptr inbounds nuw i8, ptr %.val8, i64 8
  %37 = load ptr, ptr %36, align 8, !tbaa !26
  %38 = sext i32 %35 to i64
  %39 = shl nsw i64 %38, 2
  %scevgep.i.i.i = getelementptr i8, ptr %37, i64 %39
  %40 = sub i32 %1, %35
  %41 = zext i32 %40 to i64
  %42 = shl nuw nsw i64 %41, 2
  %43 = add nuw nsw i64 %42, 4
  tail call void @llvm.memset.p0.i64(ptr noundef nonnull align 4 dereferenceable(1) %scevgep.i.i.i, i8 0, i64 %43, i1 false), !tbaa !12
  br label %._crit_edge.i.i.i

._crit_edge.i.i.i:                                ; preds = %.lr.ph.i.i.i, %Vec_IntGrow.exit.i.i.i
  store i32 %5, ptr %6, align 4, !tbaa !27
  br label %Gia_ObjLevelId.exit

Gia_ObjLevelId.exit:                              ; preds = %2, %._crit_edge.i.i.i
  %44 = getelementptr i8, ptr %.val8, i64 8
  %.val.i.i = load ptr, ptr %44, align 8, !tbaa !26
  %45 = sext i32 %1 to i64
  %46 = getelementptr inbounds i32, ptr %.val.i.i, i64 %45
  %47 = load i32, ptr %46, align 4, !tbaa !12
  %48 = getelementptr i8, ptr %0, i64 24
  %.val = load ptr, ptr %48, align 8, !tbaa !79
  %49 = getelementptr inbounds %struct.Mf_Obj_t_, ptr %.val, i64 %45, i32 3
  %50 = load i32, ptr %49, align 4
  %.not.i = icmp ult i32 %50, 65536
  %51 = getelementptr i8, ptr %0, i64 40
  %.val8.i = load ptr, ptr %51, align 8, !tbaa !80
  %52 = getelementptr inbounds %struct.Mf_Obj_t_, ptr %.val, i64 %45
  %53 = load i32, ptr %52, align 4, !tbaa !81
  %54 = ashr i32 %53, 16
  %55 = sext i32 %54 to i64
  %56 = getelementptr inbounds ptr, ptr %.val8.i, i64 %55
  %57 = load ptr, ptr %56, align 8, !tbaa !83
  %58 = and i32 %53, 65535
  %59 = zext nneg i32 %58 to i64
  %60 = getelementptr inbounds nuw i32, ptr %57, i64 %59
  %61 = getelementptr inbounds nuw i8, ptr %60, i64 4
  br i1 %.not.i, label %65, label %62

62:                                               ; preds = %Gia_ObjLevelId.exit
  %63 = tail call i32 @Mf_CutDeref_rec(ptr noundef nonnull readonly %0, ptr noundef nonnull readonly %61)
  %64 = tail call i32 @Mf_CutRef_rec(ptr noundef nonnull readonly %0, ptr noundef nonnull readonly %61)
  br label %Mf_CutAreaMffc.exit

65:                                               ; preds = %Gia_ObjLevelId.exit
  %66 = tail call i32 @Mf_CutRef_rec(ptr noundef nonnull readonly %0, ptr noundef nonnull readonly %61)
  %67 = tail call i32 @Mf_CutDeref_rec(ptr noundef nonnull readonly %0, ptr noundef nonnull readonly %61)
  br label %Mf_CutAreaMffc.exit

Mf_CutAreaMffc.exit:                              ; preds = %62, %65
  %68 = phi i32 [ %63, %62 ], [ %66, %65 ]
  %69 = lshr i32 %50, 16
  %70 = tail call i32 (ptr, ...) @printf(ptr noundef nonnull dereferenceable(1) @.str.45, i32 noundef %1, i32 noundef %47, i32 noundef %69, i32 noundef %68)
  ret i32 %68
}